target datalayout = "e-m:e-p270:32:32-p271:32:32-p272:64:64-i64:64-i128:128-f80:128-n8:16:32:64-S128"
target triple = "x86_64-pc-linux-gnu"

%"struct.open3d::t::io::(anonymous namespace)::PLYReaderState" = type { %"class.std::vector", ptr }
%"class.std::vector" = type { %"struct.std::_Vector_base" }
%"struct.std::_Vector_base" = type { %"struct.std::_Vector_base<std::shared_ptr<open3d::t::io::(anonymous namespace)::PLYReaderState::AttrState>, std::allocator<std::shared_ptr<open3d::t::io::(anonymous namespace)::PLYReaderState::AttrState>>>::_Vector_impl" }
%"struct.std::_Vector_base<std::shared_ptr<open3d::t::io::(anonymous namespace)::PLYReaderState::AttrState>, std::allocator<std::shared_ptr<open3d::t::io::(anonymous namespace)::PLYReaderState::AttrState>>>::_Vector_impl" = type { %"struct.std::_Vector_base<std::shared_ptr<open3d::t::io::(anonymous namespace)::PLYReaderState::AttrState>, std::allocator<std::shared_ptr<open3d::t::io::(anonymous namespace)::PLYReaderState::AttrState>>>::_Vector_impl_data" }
%"struct.std::_Vector_base<std::shared_ptr<open3d::t::io::(anonymous namespace)::PLYReaderState::AttrState>, std::allocator<std::shared_ptr<open3d::t::io::(anonymous namespace)::PLYReaderState::AttrState>>>::_Vector_impl_data" = type { ptr, ptr, ptr }
%"class.std::__cxx11::basic_string" = type { %"struct.std::__cxx11::basic_string<char>::_Alloc_hider", i64, %union.anon }
%"struct.std::__cxx11::basic_string<char>::_Alloc_hider" = type { ptr }
%union.anon = type { i64, [8 x i8] }
%"class.std::shared_ptr" = type { %"class.std::__shared_ptr" }
%"class.std::__shared_ptr" = type { ptr, %"class.std::__shared_count" }
%"class.std::__shared_count" = type { ptr }
%"class.open3d::utility::CountingProgressReporter" = type { %"class.std::function", i64, i64 }
%"class.std::function" = type { %"class.std::_Function_base", ptr }
%"class.std::_Function_base" = type { %"union.std::_Any_data", ptr }
%"union.std::_Any_data" = type { %"union.std::_Nocopy_types" }
%"union.std::_Nocopy_types" = type { { i64, i64 } }
%"struct.open3d::t::io::(anonymous namespace)::PLYReaderState::AttrState" = type { %"class.std::__cxx11::basic_string", ptr, i32, i32, i64, i64 }

; Function Attrs: mustprogress ssp uwtable
define linkonce_odr noundef zeroext i1 @_ZNKSt8functionIFbdEEclEd(ptr noundef nonnull align 8 dereferenceable(32) %0, double noundef %1) #3 comdat align 2 {
  %3 = alloca ptr, align 8
  %4 = alloca double, align 8
  store ptr %0, ptr %3, align 8, !tbaa !266
  store double %1, ptr %4, align 8, !tbaa !335
  %5 = load ptr, ptr %3, align 8
  %6 = call noundef zeroext i1 @_ZNKSt14_Function_base8_M_emptyEv(ptr noundef nonnull align 8 dereferenceable(24) %5)
  br i1 %6, label %7, label %8

7:                                                ; preds = %2
  call void @_ZSt25__throw_bad_function_callv() #29
  unreachable

8:                                                ; preds = %2
  %9 = getelementptr inbounds nuw %"class.std::function", ptr %5, i32 0, i32 1
  %10 = load ptr, ptr %9, align 8, !tbaa !268
  %11 = getelementptr inbounds nuw %"class.std::_Function_base", ptr %5, i32 0, i32 0
  %12 = call noundef zeroext i1 %10(ptr noundef nonnull align 8 dereferenceable(16) %11, ptr noundef nonnull align 8 dereferenceable(8) %4)
  ret i1 %12
}

; Function Attrs: noinline noreturn nounwind ssp uwtable
define linkonce_odr hidden void @__clang_call_terminate(ptr noundef %0) #14 comdat {
  %2 = call ptr @__cxa_begin_catch(ptr %0) #7
  call void @_ZSt9terminatev() #31
  unreachable
}

; Function Attrs: mustprogress nounwind ssp uwtable
define linkonce_odr noundef zeroext i1 @_ZNKSt14_Function_base8_M_emptyEv(ptr noundef nonnull align 8 dereferenceable(24) %0) #1 comdat align 2 {
  %2 = alloca ptr, align 8
  store ptr %0, ptr %2, align 8, !tbaa !1150
  %3 = load ptr, ptr %2, align 8
  %4 = getelementptr inbounds nuw %"class.std::_Function_base", ptr %3, i32 0, i32 1
  %5 = load ptr, ptr %4, align 8, !tbaa !271
  %6 = icmp ne ptr %5, null
  %7 = xor i1 %6, true
  ret i1 %7
}

; Function Attrs: mustprogress nounwind ssp uwtable
define internal noundef ptr @_ZNKSt12__shared_ptrIN6open3d1t2io12_GLOBAL__N_114PLYReaderState9AttrStateELN9__gnu_cxx12_Lock_policyE2EE3getEv(ptr noundef nonnull align 8 dereferenceable(16) %0) #1 align 2 {
  %2 = alloca ptr, align 8
  store ptr %0, ptr %2, align 8, !tbaa !260
  %3 = load ptr, ptr %2, align 8
  %4 = getelementptr inbounds nuw %"class.std::__shared_ptr", ptr %3, i32 0, i32 0
  %5 = load ptr, ptr %4, align 8, !tbaa !1040
  ret ptr %5
}

; Function Attrs: mustprogress ssp uwtable
define linkonce_odr noundef zeroext i1 @_ZN6open3d7utility24CountingProgressReporter10CallUpdateEd(ptr noundef nonnull align 8 dereferenceable(48) %0, double noundef %1) #3 comdat align 2 {
  %3 = alloca i1, align 1
  %4 = alloca ptr, align 8
  %5 = alloca double, align 8
  store ptr %0, ptr %4, align 8, !tbaa !272
  store double %1, ptr %5, align 8, !tbaa !335
  %6 = load ptr, ptr %4, align 8
  %7 = getelementptr inbounds nuw %"class.open3d::utility::CountingProgressReporter", ptr %6, i32 0, i32 0
  %8 = call noundef zeroext i1 @_ZNKSt8functionIFbdEEcvbEv(ptr noundef nonnull align 8 dereferenceable(32) %7) #7
  br i1 %8, label %9, label %13

9:                                                ; preds = %2
  %10 = getelementptr inbounds nuw %"class.open3d::utility::CountingProgressReporter", ptr %6, i32 0, i32 0
  %11 = load double, ptr %5, align 8, !tbaa !335
  %12 = call noundef zeroext i1 @_ZNKSt8functionIFbdEEclEd(ptr noundef nonnull align 8 dereferenceable(32) %10, double noundef %11)
  store i1 %12, ptr %3, align 1
  br label %14

13:                                               ; preds = %2
  store i1 true, ptr %3, align 1
  br label %14

14:                                               ; preds = %13, %9
  %15 = load i1, ptr %3, align 1
  ret i1 %15
}

; Function Attrs: mustprogress nounwind ssp uwtable
define linkonce_odr noundef zeroext i1 @_ZNKSt8functionIFbdEEcvbEv(ptr noundef nonnull align 8 dereferenceable(32) %0) #1 comdat align 2 personality ptr @__gxx_personality_v0 {
  %2 = alloca ptr, align 8
  store ptr %0, ptr %2, align 8, !tbaa !266
  %3 = load ptr, ptr %2, align 8
  %4 = invoke noundef zeroext i1 @_ZNKSt14_Function_base8_M_emptyEv(ptr noundef nonnull align 8 dereferenceable(24) %3)
          to label %5 unwind label %7

5:                                                ; preds = %1
  %6 = xor i1 %4, true
  ret i1 %6

7:                                                ; preds = %1
  %8 = landingpad { ptr, i32 }
          catch ptr null
  %9 = extractvalue { ptr, i32 } %8, 0
  call void @__clang_call_terminate(ptr %9) #31
  unreachable
}

; Function Attrs: mustprogress nounwind ssp uwtable
define internal noundef ptr @_ZNKSt19__shared_ptr_accessIN6open3d1t2io12_GLOBAL__N_114PLYReaderState9AttrStateELN9__gnu_cxx12_Lock_policyE2ELb0ELb0EE6_M_getEv(ptr noundef nonnull align 1 dereferenceable(1) %0) #1 align 2 {
  %2 = alloca ptr, align 8
  store ptr %0, ptr %2, align 8, !tbaa !235
  %3 = load ptr, ptr %2, align 8
  %4 = call noundef ptr @_ZNKSt12__shared_ptrIN6open3d1t2io12_GLOBAL__N_114PLYReaderState9AttrStateELN9__gnu_cxx12_Lock_policyE2EE3getEv(ptr noundef nonnull align 8 dereferenceable(16) %3) #7
  ret ptr %4
}

; Function Attrs: mustprogress ssp uwtable
define linkonce_odr noundef zeroext i1 @_ZN6open3d7utility24CountingProgressReporter6UpdateEl(ptr noundef nonnull align 8 dereferenceable(48) %0, i64 noundef %1) #3 comdat align 2 {
  %3 = alloca i1, align 1
  %4 = alloca ptr, align 8
  %5 = alloca i64, align 8
  %6 = alloca double, align 8
  store ptr %0, ptr %4, align 8, !tbaa !272
  store i64 %1, ptr %5, align 8, !tbaa !30
  %7 = load ptr, ptr %4, align 8
  %8 = getelementptr inbounds nuw %"class.open3d::utility::CountingProgressReporter", ptr %7, i32 0, i32 0
  %9 = call noundef zeroext i1 @_ZNKSt8functionIFbdEEcvbEv(ptr noundef nonnull align 8 dereferenceable(32) %8) #7
  br i1 %9, label %11, label %10

10:                                               ; preds = %2
  store i1 true, ptr %3, align 1
  br label %35

11:                                               ; preds = %2
  %12 = load i64, ptr %5, align 8, !tbaa !30
  %13 = getelementptr inbounds nuw %"class.open3d::utility::CountingProgressReporter", ptr %7, i32 0, i32 2
  store i64 %12, ptr %13, align 8, !tbaa !275
  call void @llvm.lifetime.start.p0(i64 8, ptr %6) #7
  store double 0.000000e+00, ptr %6, align 8, !tbaa !335
  %14 = getelementptr inbounds nuw %"class.open3d::utility::CountingProgressReporter", ptr %7, i32 0, i32 1
  %15 = load i64, ptr %14, align 8, !tbaa !273
  %16 = icmp sgt i64 %15, 0
  br i1 %16, label %17, label %32

17:                                               ; preds = %11
  %18 = load i64, ptr %5, align 8, !tbaa !30
  %19 = getelementptr inbounds nuw %"class.open3d::utility::CountingProgressReporter", ptr %7, i32 0, i32 1
  %20 = load i64, ptr %19, align 8, !tbaa !273
  %21 = icmp slt i64 %18, %20
  br i1 %21, label %22, label %30

22:                                               ; preds = %17
  %23 = load i64, ptr %5, align 8, !tbaa !30
  %24 = sitofp i64 %23 to double
  %25 = fmul double %24, 1.000000e+02
  %26 = getelementptr inbounds nuw %"class.open3d::utility::CountingProgressReporter", ptr %7, i32 0, i32 1
  %27 = load i64, ptr %26, align 8, !tbaa !273
  %28 = sitofp i64 %27 to double
  %29 = fdiv double %25, %28
  store double %29, ptr %6, align 8, !tbaa !335
  br label %31

30:                                               ; preds = %17
  store double 1.000000e+02, ptr %6, align 8, !tbaa !335
  br label %31

31:                                               ; preds = %30, %22
  br label %32

32:                                               ; preds = %31, %11
  %33 = load double, ptr %6, align 8, !tbaa !335
  %34 = call noundef zeroext i1 @_ZN6open3d7utility24CountingProgressReporter10CallUpdateEd(ptr noundef nonnull align 8 dereferenceable(48) %7, double noundef %33)
  store i1 %34, ptr %3, align 1
  call void @llvm.lifetime.end.p0(i64 8, ptr %6) #7
  br label %35

35:                                               ; preds = %32, %10
  %36 = load i1, ptr %3, align 1
  ret i1 %36
}

; Function Attrs: mustprogress nounwind ssp uwtable
define internal noundef ptr @_ZNKSt19__shared_ptr_accessIN6open3d1t2io12_GLOBAL__N_114PLYReaderState9AttrStateELN9__gnu_cxx12_Lock_policyE2ELb0ELb0EEptEv(ptr noundef nonnull align 1 dereferenceable(1) %0) #1 align 2 {
  %2 = alloca ptr, align 8
  store ptr %0, ptr %2, align 8, !tbaa !235
  %3 = load ptr, ptr %2, align 8
  %4 = call noundef ptr @_ZNKSt19__shared_ptr_accessIN6open3d1t2io12_GLOBAL__N_114PLYReaderState9AttrStateELN9__gnu_cxx12_Lock_policyE2ELb0ELb0EE6_M_getEv(ptr noundef nonnull align 1 dereferenceable(1) %3) #7
  ret ptr %4
}

; Function Attrs: mustprogress nounwind ssp uwtable
define internal noundef nonnull align 8 dereferenceable(16) ptr @_ZNSt6vectorISt10shared_ptrIN6open3d1t2io12_GLOBAL__N_114PLYReaderState9AttrStateEESaIS7_EEixEm(ptr noundef nonnull align 8 dereferenceable(24) %0, i64 noundef %1) #1 align 2 {
  %3 = alloca ptr, align 8
  %4 = alloca i64, align 8
  store ptr %0, ptr %3, align 8, !tbaa !192
  store i64 %1, ptr %4, align 8, !tbaa !30
  %5 = load ptr, ptr %3, align 8
  %6 = getelementptr inbounds nuw %"struct.std::_Vector_base", ptr %5, i32 0, i32 0
  %7 = getelementptr inbounds nuw %"struct.std::_Vector_base<std::shared_ptr<open3d::t::io::(anonymous namespace)::PLYReaderState::AttrState>, std::allocator<std::shared_ptr<open3d::t::io::(anonymous namespace)::PLYReaderState::AttrState>>>::_Vector_impl_data", ptr %6, i32 0, i32 0
  %8 = load ptr, ptr %7, align 8, !tbaa !224
  %9 = load i64, ptr %4, align 8, !tbaa !30
  %10 = getelementptr inbounds nuw %"class.std::shared_ptr", ptr %8, i64 %9
  ret ptr %10
}

; Function Attrs: mustprogress ssp uwtable
define internal noundef i32 @_ZN6open3d1t2io12_GLOBAL__N_121ReadAttributeCallbackIiEEiP15t_ply_argument_(ptr noundef %0) #3 {
  %2 = alloca i32, align 4
  %3 = alloca ptr, align 8
  %4 = alloca ptr, align 8
  %5 = alloca i64, align 8
  %6 = alloca ptr, align 8
  %7 = alloca i32, align 4
  %8 = alloca ptr, align 8
  %9 = alloca i64, align 8
  store ptr %0, ptr %3, align 8, !tbaa !1148
  call void @llvm.lifetime.start.p0(i64 8, ptr %4) #7
  call void @llvm.lifetime.start.p0(i64 8, ptr %5) #7
  %10 = load ptr, ptr %3, align 8, !tbaa !1148
  %11 = call i32 @ply_get_argument_user_data(ptr noundef %10, ptr noundef %4, ptr noundef %5)
  call void @llvm.lifetime.start.p0(i64 8, ptr %6) #7
  %12 = load ptr, ptr %4, align 8, !tbaa !173
  %13 = getelementptr inbounds nuw %"struct.open3d::t::io::(anonymous namespace)::PLYReaderState", ptr %12, i32 0, i32 0
  %14 = load i64, ptr %5, align 8, !tbaa !30
  %15 = call noundef nonnull align 8 dereferenceable(16) ptr @_ZNSt6vectorISt10shared_ptrIN6open3d1t2io12_GLOBAL__N_114PLYReaderState9AttrStateEESaIS7_EEixEm(ptr noundef nonnull align 8 dereferenceable(24) %13, i64 noundef %14) #7
  store ptr %15, ptr %6, align 8, !tbaa !194
  %16 = load ptr, ptr %6, align 8, !tbaa !194
  %17 = call noundef ptr @_ZNKSt19__shared_ptr_accessIN6open3d1t2io12_GLOBAL__N_114PLYReaderState9AttrStateELN9__gnu_cxx12_Lock_policyE2ELb0ELb0EEptEv(ptr noundef nonnull align 1 dereferenceable(1) %16) #7
  %18 = getelementptr inbounds nuw %"struct.open3d::t::io::(anonymous namespace)::PLYReaderState::AttrState", ptr %17, i32 0, i32 5
  %19 = load i64, ptr %18, align 8, !tbaa !185
  %20 = load ptr, ptr %6, align 8, !tbaa !194
  %21 = call noundef ptr @_ZNKSt19__shared_ptr_accessIN6open3d1t2io12_GLOBAL__N_114PLYReaderState9AttrStateELN9__gnu_cxx12_Lock_policyE2ELb0ELb0EEptEv(ptr noundef nonnull align 1 dereferenceable(1) %20) #7
  %22 = getelementptr inbounds nuw %"struct.open3d::t::io::(anonymous namespace)::PLYReaderState::AttrState", ptr %21, i32 0, i32 4
  %23 = load i64, ptr %22, align 8, !tbaa !184
  %24 = icmp sge i64 %19, %23
  br i1 %24, label %25, label %26

25:                                               ; preds = %1
  store i32 0, ptr %2, align 4
  store i32 1, ptr %7, align 4
  br label %80

26:                                               ; preds = %1
  call void @llvm.lifetime.start.p0(i64 8, ptr %8) #7
  %27 = load ptr, ptr %6, align 8, !tbaa !194
  %28 = call noundef ptr @_ZNKSt19__shared_ptr_accessIN6open3d1t2io12_GLOBAL__N_114PLYReaderState9AttrStateELN9__gnu_cxx12_Lock_policyE2ELb0ELb0EEptEv(ptr noundef nonnull align 1 dereferenceable(1) %27) #7
  %29 = getelementptr inbounds nuw %"struct.open3d::t::io::(anonymous namespace)::PLYReaderState::AttrState", ptr %28, i32 0, i32 1
  %30 = load ptr, ptr %29, align 8, !tbaa !183
  store ptr %30, ptr %8, align 8, !tbaa !93
  call void @llvm.lifetime.start.p0(i64 8, ptr %9) #7
  %31 = load ptr, ptr %6, align 8, !tbaa !194
  %32 = call noundef ptr @_ZNKSt19__shared_ptr_accessIN6open3d1t2io12_GLOBAL__N_114PLYReaderState9AttrStateELN9__gnu_cxx12_Lock_policyE2ELb0ELb0EEptEv(ptr noundef nonnull align 1 dereferenceable(1) %31) #7
  %33 = getelementptr inbounds nuw %"struct.open3d::t::io::(anonymous namespace)::PLYReaderState::AttrState", ptr %32, i32 0, i32 2
  %34 = load i32, ptr %33, align 8, !tbaa !175
  %35 = sext i32 %34 to i64
  %36 = load ptr, ptr %6, align 8, !tbaa !194
  %37 = call noundef ptr @_ZNKSt19__shared_ptr_accessIN6open3d1t2io12_GLOBAL__N_114PLYReaderState9AttrStateELN9__gnu_cxx12_Lock_policyE2ELb0ELb0EEptEv(ptr noundef nonnull align 1 dereferenceable(1) %36) #7
  %38 = getelementptr inbounds nuw %"struct.open3d::t::io::(anonymous namespace)::PLYReaderState::AttrState", ptr %37, i32 0, i32 5
  %39 = load i64, ptr %38, align 8, !tbaa !185
  %40 = mul nsw i64 %35, %39
  %41 = load ptr, ptr %6, align 8, !tbaa !194
  %42 = call noundef ptr @_ZNKSt19__shared_ptr_accessIN6open3d1t2io12_GLOBAL__N_114PLYReaderState9AttrStateELN9__gnu_cxx12_Lock_policyE2ELb0ELb0EEptEv(ptr noundef nonnull align 1 dereferenceable(1) %41) #7
  %43 = getelementptr inbounds nuw %"struct.open3d::t::io::(anonymous namespace)::PLYReaderState::AttrState", ptr %42, i32 0, i32 3
  %44 = load i32, ptr %43, align 4, !tbaa !179
  %45 = sext i32 %44 to i64
  %46 = add nsw i64 %40, %45
  store i64 %46, ptr %9, align 8, !tbaa !30
  %47 = load ptr, ptr %3, align 8, !tbaa !1148
  %48 = call double @ply_get_argument_value(ptr noundef %47)
  %49 = fptosi double %48 to i32
  %50 = load ptr, ptr %8, align 8, !tbaa !93
  %51 = load i64, ptr %9, align 8, !tbaa !30
  %52 = getelementptr inbounds i32, ptr %50, i64 %51
  store i32 %49, ptr %52, align 4, !tbaa !121
  %53 = load ptr, ptr %6, align 8, !tbaa !194
  %54 = call noundef ptr @_ZNKSt19__shared_ptr_accessIN6open3d1t2io12_GLOBAL__N_114PLYReaderState9AttrStateELN9__gnu_cxx12_Lock_policyE2ELb0ELb0EEptEv(ptr noundef nonnull align 1 dereferenceable(1) %53) #7
  %55 = getelementptr inbounds nuw %"struct.open3d::t::io::(anonymous namespace)::PLYReaderState::AttrState", ptr %54, i32 0, i32 5
  %56 = load i64, ptr %55, align 8, !tbaa !185
  %57 = add nsw i64 %56, 1
  store i64 %57, ptr %55, align 8, !tbaa !185
  %58 = load ptr, ptr %6, align 8, !tbaa !194
  %59 = call noundef ptr @_ZNKSt19__shared_ptr_accessIN6open3d1t2io12_GLOBAL__N_114PLYReaderState9AttrStateELN9__gnu_cxx12_Lock_policyE2ELb0ELb0EEptEv(ptr noundef nonnull align 1 dereferenceable(1) %58) #7
  %60 = getelementptr inbounds nuw %"struct.open3d::t::io::(anonymous namespace)::PLYReaderState::AttrState", ptr %59, i32 0, i32 3
  %61 = load i32, ptr %60, align 4, !tbaa !179
  %62 = icmp eq i32 %61, 0
  br i1 %62, label %63, label %79

63:                                               ; preds = %26
  %64 = load ptr, ptr %6, align 8, !tbaa !194
  %65 = call noundef ptr @_ZNKSt19__shared_ptr_accessIN6open3d1t2io12_GLOBAL__N_114PLYReaderState9AttrStateELN9__gnu_cxx12_Lock_policyE2ELb0ELb0EEptEv(ptr noundef nonnull align 1 dereferenceable(1) %64) #7
  %66 = getelementptr inbounds nuw %"struct.open3d::t::io::(anonymous namespace)::PLYReaderState::AttrState", ptr %65, i32 0, i32 5
  %67 = load i64, ptr %66, align 8, !tbaa !185
  %68 = srem i64 %67, 1000
  %69 = icmp eq i64 %68, 0
  br i1 %69, label %70, label %79

70:                                               ; preds = %63
  %71 = load ptr, ptr %4, align 8, !tbaa !173
  %72 = getelementptr inbounds nuw %"struct.open3d::t::io::(anonymous namespace)::PLYReaderState", ptr %71, i32 0, i32 1
  %73 = load ptr, ptr %72, align 8, !tbaa !196
  %74 = load ptr, ptr %6, align 8, !tbaa !194
  %75 = call noundef ptr @_ZNKSt19__shared_ptr_accessIN6open3d1t2io12_GLOBAL__N_114PLYReaderState9AttrStateELN9__gnu_cxx12_Lock_policyE2ELb0ELb0EEptEv(ptr noundef nonnull align 1 dereferenceable(1) %74) #7
  %76 = getelementptr inbounds nuw %"struct.open3d::t::io::(anonymous namespace)::PLYReaderState::AttrState", ptr %75, i32 0, i32 5
  %77 = load i64, ptr %76, align 8, !tbaa !185
  %78 = call noundef zeroext i1 @_ZN6open3d7utility24CountingProgressReporter6UpdateEl(ptr noundef nonnull align 8 dereferenceable(48) %73, i64 noundef %77)
  br label %79

79:                                               ; preds = %70, %63, %26
  store i32 1, ptr %2, align 4
  store i32 1, ptr %7, align 4
  call void @llvm.lifetime.end.p0(i64 8, ptr %9) #7
  call void @llvm.lifetime.end.p0(i64 8, ptr %8) #7
  br label %80

80:                                               ; preds = %79, %25
  call void @llvm.lifetime.end.p0(i64 8, ptr %6) #7
  call void @llvm.lifetime.end.p0(i64 8, ptr %5) #7
  call void @llvm.lifetime.end.p0(i64 8, ptr %4) #7
  %81 = load i32, ptr %2, align 4
  ret i32 %81
}